target datalayout = "e-m:e-p270:32:32-p271:32:32-p272:64:64-i64:64-i128:128-f80:128-n8:16:32:64-S128"
target triple = "x86_64-pc-linux-gnu"

%struct.expert_field = type { i32, i32 }

@hf_nan_availability_intervals_bitmap = internal global i32 0, align 4
@hf_nan_mac_address = internal global i32 0, align 4
@hf_nan_map_ctrl_field = internal global i32 0, align 4
@hf_nan_attr_p2p_device_role = internal global i32 0, align 4
@ett_map_control = internal global i32 0, align 4
@ett_p2p_device_role = internal global i32 0, align 4
@ei_nan_elem_len_invalid = internal global %struct.expert_field zeroinitializer, align 4
@map_control_fields = internal constant [4 x ptr] [ptr @hf_nan_map_ctrl_map_id, ptr @hf_nan_map_ctrl_availability_interval_duration, ptr @hf_nan_map_ctrl_repeat, ptr null], align 16
@dissect_attr_p2p_operation.p2p_bitmap_fields = internal constant [4 x ptr] [ptr @hf_nan_attr_p2p_device_role_device, ptr @hf_nan_attr_p2p_device_role_group_owner, ptr @hf_nan_attr_p2p_device_role_client, ptr null], align 16

; Function Attrs: null_pointer_is_valid sspstrong uwtable
define internal void @dissect_attr_p2p_operation(ptr noundef %0, ptr noundef %1, i32 noundef %2, i16 noundef zeroext %3, ptr noundef %4) #0 {
  %6 = alloca ptr, align 8
  %7 = alloca ptr, align 8
  %8 = alloca i32, align 4
  %9 = alloca i16, align 2
  %10 = alloca ptr, align 8
  %11 = alloca i32, align 4
  store ptr %0, ptr %6, align 8
  store ptr %1, ptr %7, align 8
  store i32 %2, ptr %8, align 4
  store i16 %3, ptr %9, align 2
  store ptr %4, ptr %10, align 8
  %12 = load i16, ptr %9, align 2
  %13 = zext i16 %12 to i32
  %14 = icmp slt i32 %13, 9
  br i1 %14, label %15, label %19

15:                                               ; preds = %5
  %16 = load ptr, ptr %10, align 8
  %17 = load ptr, ptr %6, align 8
  %18 = call ptr @expert_add_info(ptr noundef %16, ptr noundef %17, ptr noundef @ei_nan_elem_len_invalid)
  br label %50

19:                                               ; preds = %5
  call void @llvm.lifetime.start.p0(i64 4, ptr %11) #5
  %20 = load i32, ptr %8, align 4
  %21 = add i32 %20, 3
  store i32 %21, ptr %11, align 4
  %22 = load ptr, ptr %6, align 8
  %23 = load ptr, ptr %7, align 8
  %24 = load i32, ptr %11, align 4
  %25 = load i32, ptr @hf_nan_attr_p2p_device_role, align 4
  %26 = load i32, ptr @ett_p2p_device_role, align 4
  %27 = call ptr @proto_tree_add_bitmask(ptr noundef %22, ptr noundef %23, i32 noundef %24, i32 noundef %25, i32 noundef %26, ptr noundef @dissect_attr_p2p_operation.p2p_bitmap_fields, i32 noundef -2147483648)
  %28 = load i32, ptr %11, align 4
  %29 = add i32 %28, 1
  store i32 %29, ptr %11, align 4
  %30 = load ptr, ptr %6, align 8
  %31 = load i32, ptr @hf_nan_mac_address, align 4
  %32 = load ptr, ptr %7, align 8
  %33 = load i32, ptr %11, align 4
  %34 = call ptr @proto_tree_add_item(ptr noundef %30, i32 noundef %31, ptr noundef %32, i32 noundef %33, i32 noundef 6, i32 noundef 0)
  %35 = load i32, ptr %11, align 4
  %36 = add i32 %35, 6
  store i32 %36, ptr %11, align 4
  %37 = load ptr, ptr %6, align 8
  %38 = load ptr, ptr %7, align 8
  %39 = load i32, ptr %11, align 4
  %40 = load i32, ptr @hf_nan_map_ctrl_field, align 4
  %41 = load i32, ptr @ett_map_control, align 4
  %42 = call ptr @proto_tree_add_bitmask(ptr noundef %37, ptr noundef %38, i32 noundef %39, i32 noundef %40, i32 noundef %41, ptr noundef @map_control_fields, i32 noundef -2147483648)
  %43 = load i32, ptr %11, align 4
  %44 = add i32 %43, 1
  store i32 %44, ptr %11, align 4
  %45 = load ptr, ptr %6, align 8
  %46 = load i32, ptr @hf_nan_availability_intervals_bitmap, align 4
  %47 = load ptr, ptr %7, align 8
  %48 = load i32, ptr %11, align 4
  %49 = call ptr @proto_tree_add_item(ptr noundef %45, i32 noundef %46, ptr noundef %47, i32 noundef %48, i32 noundef -1, i32 noundef 0)
  call void @llvm.lifetime.end.p0(i64 4, ptr %11) #5
  br label %50

50:                                               ; preds = %19, %15
  ret void
}